(dp0
S'acc'
p1
(lp2
cnumpy.core.multiarray
scalar
p3
(cnumpy
dtype
p4
(S'f8'
p5
I0
I1
tp6
Rp7
(I3
S'<'
p8
NNNI-1
I-1
I0
tp9
bS'\xbfG\x95\xd6\xce\x9c\xec?'
p10
tp11
Rp12
asS'loss'
p13
(lp14
g3
(g7
S'\xca9Rd\xd7\x1b\xd6?'
p15
tp16
Rp17
as.